; ModuleID = 'bench/open3d/original/NNSIndex.ll'
source_filename = "bench/open3d/original/NNSIndex.ll"
target datalayout = "e-m:e-p270:32:32-p271:32:32-p272:64:64-i64:64-i128:128-f80:128-n8:16:32:64-S128"
target triple = "x86_64-pc-linux-gnu"

module asm ".globl _ZSt21ios_base_library_initv"

%"class.std::locale::id" = type { i64 }
%"class.open3d::core::SizeVector" = type { %"class.open3d::core::SmallVector" }
%"class.open3d::core::SmallVector" = type { %"class.open3d::core::SmallVectorImpl", %"struct.open3d::core::SmallVectorStorage" }
%"class.open3d::core::SmallVectorImpl" = type { %"class.open3d::core::SmallVectorTemplateBase" }
%"class.open3d::core::SmallVectorTemplateBase" = type { %"class.open3d::core::SmallVectorTemplateCommon" }
%"class.open3d::core::SmallVectorTemplateCommon" = type { %"class.open3d::core::SmallVectorBase" }
%"class.open3d::core::SmallVectorBase" = type { ptr, i32, i32 }
%"struct.open3d::core::SmallVectorStorage" = type { [32 x i8] }
%"class.open3d::core::Dtype" = type { i32, i64, [16 x i8] }

$_ZN3fmt3v1012format_facetISt6localeE2idE = comdat any

@_ZN3fmt3v1012format_facetISt6localeE2idE = linkonce_odr global %"class.std::locale::id" zeroinitializer, comdat, align 8
@_ZGVN3fmt3v1012format_facetISt6localeE2idE = linkonce_odr local_unnamed_addr global i64 0, comdat($_ZN3fmt3v1012format_facetISt6localeE2idE), align 8
@llvm.global_ctors = appending global [1 x { i32, ptr, ptr }] [{ i32, ptr, ptr } { i32 65535, ptr @__cxx_global_var_init, ptr @_ZN3fmt3v1012format_facetISt6localeE2idE }]
@llvm.used = appending global [1 x ptr] [ptr @_ZN3fmt3v1012format_facetISt6localeE2idE], section "llvm.metadata"

; Function Attrs: mustprogress ssp uwtable
define noundef i32 @_ZNK6open3d4core3nns8NNSIndex12GetDimensionEv(ptr noundef nonnull align 8 dereferenceable(200) %0) local_unnamed_addr #0 align 2 personality ptr @__gxx_personality_v0 {
  %2 = alloca %"class.open3d::core::SizeVector", align 8
  call void @llvm.lifetime.start.p0(i64 48, ptr nonnull %2) #7
  %3 = getelementptr inbounds nuw i8, ptr %0, i64 16
  call void @_ZN6open3d4core10SizeVectorC1ERKS1_(ptr noundef nonnull align 8 dereferenceable(48) %2, ptr noundef nonnull align 8 dereferenceable(48) %3)
  %4 = load ptr, ptr %2, align 8, !tbaa !4
  %5 = getelementptr inbounds nuw i8, ptr %4, i64 8
  %6 = load i64, ptr %5, align 8, !tbaa !10
  %7 = getelementptr inbounds nuw i8, ptr %2, i64 16
  %8 = icmp eq ptr %4, %7
  br i1 %8, label %_ZN6open3d4core11SmallVectorIlLj4EED2Ev.exit, label %9

9:                                                ; preds = %1
  call void @free(ptr noundef nonnull %4) #7
  br label %_ZN6open3d4core11SmallVectorIlLj4EED2Ev.exit

_ZN6open3d4core11SmallVectorIlLj4EED2Ev.exit:     ; preds = %1, %9
  %10 = trunc i64 %6 to i32
  call void @llvm.lifetime.end.p0(i64 48, ptr nonnull %2) #7
  ret i32 %10
}

; Function Attrs: mustprogress nocallback nofree nosync nounwind willreturn memory(argmem: readwrite)
declare void @llvm.lifetime.start.p0(i64 immarg, ptr captures(none)) #1

declare i32 @__gxx_personality_v0(...)

; Function Attrs: mustprogress nocallback nofree nosync nounwind willreturn memory(argmem: readwrite)
declare void @llvm.lifetime.end.p0(i64 immarg, ptr captures(none)) #1

declare void @_ZN6open3d4core10SizeVectorC1ERKS1_(ptr noundef nonnull align 8 dereferenceable(48), ptr noundef nonnull align 8 dereferenceable(48)) unnamed_addr #2

; Function Attrs: mustprogress nounwind willreturn allockind("free") memory(argmem: readwrite, inaccessiblemem: readwrite)
declare void @free(ptr allocptr noundef captures(none)) local_unnamed_addr #3

; Function Attrs: mustprogress ssp uwtable
define noundef i64 @_ZNK6open3d4core3nns8NNSIndex14GetDatasetSizeEv(ptr noundef nonnull align 8 dereferenceable(200) %0) local_unnamed_addr #0 align 2 personality ptr @__gxx_personality_v0 {
  %2 = alloca %"class.open3d::core::SizeVector", align 8
  call void @llvm.lifetime.start.p0(i64 48, ptr nonnull %2) #7
  %3 = getelementptr inbounds nuw i8, ptr %0, i64 16
  call void @_ZN6open3d4core10SizeVectorC1ERKS1_(ptr noundef nonnull align 8 dereferenceable(48) %2, ptr noundef nonnull align 8 dereferenceable(48) %3)
  %4 = load ptr, ptr %2, align 8, !tbaa !4
  %5 = load i64, ptr %4, align 8, !tbaa !10
  %6 = getelementptr inbounds nuw i8, ptr %2, i64 16
  %7 = icmp eq ptr %4, %6
  br i1 %7, label %_ZN6open3d4core11SmallVectorIlLj4EED2Ev.exit, label %8

8:                                                ; preds = %1
  call void @free(ptr noundef nonnull %4) #7
  br label %_ZN6open3d4core11SmallVectorIlLj4EED2Ev.exit

_ZN6open3d4core11SmallVectorIlLj4EED2Ev.exit:     ; preds = %1, %8
  call void @llvm.lifetime.end.p0(i64 48, ptr nonnull %2) #7
  ret i64 %5
}

; Function Attrs: mustprogress nofree norecurse nosync nounwind ssp willreturn memory(argmem: readwrite) uwtable
define void @_ZNK6open3d4core3nns8NNSIndex8GetDtypeEv(ptr dead_on_unwind noalias writable writeonly sret(%"class.open3d::core::Dtype") align 8 captures(none) initializes((0, 32)) %0, ptr noundef nonnull readonly align 8 captures(none) dereferenceable(200) %1) local_unnamed_addr #4 align 2 {
  %3 = getelementptr inbounds nuw i8, ptr %1, i64 120
  tail call void @llvm.memcpy.p0.p0.i64(ptr noundef nonnull align 8 dereferenceable(32) %0, ptr noundef nonnull align 8 dereferenceable(32) %3, i64 32, i1 false), !tbaa.struct !12
  ret void
}

; Function Attrs: mustprogress nocallback nofree nounwind willreturn memory(argmem: readwrite)
declare void @llvm.memcpy.p0.p0.i64(ptr noalias writeonly captures(none), ptr noalias readonly captures(none), i64, i1 immarg) #5

; Function Attrs: mustprogress ssp uwtable
define i64 @_ZNK6open3d4core3nns8NNSIndex9GetDeviceEv(ptr noundef nonnull align 8 dereferenceable(200) %0) local_unnamed_addr #0 align 2 {
  %2 = getelementptr inbounds nuw i8, ptr %0, i64 8
  %3 = tail call i64 @_ZNK6open3d4core6Tensor9GetDeviceEv(ptr noundef nonnull align 8 dereferenceable(160) %2)
  ret i64 %3
}

declare i64 @_ZNK6open3d4core6Tensor9GetDeviceEv(ptr noundef nonnull align 8 dereferenceable(160)) unnamed_addr #2

; Function Attrs: mustprogress nofree norecurse nosync nounwind ssp willreturn memory(argmem: readwrite) uwtable
define void @_ZNK6open3d4core3nns8NNSIndex13GetIndexDtypeEv(ptr dead_on_unwind noalias writable writeonly sret(%"class.open3d::core::Dtype") align 8 captures(none) initializes((0, 32)) %0, ptr noundef nonnull readonly align 8 captures(none) dereferenceable(200) %1) local_unnamed_addr #4 align 2 {
  %3 = getelementptr inbounds nuw i8, ptr %1, i64 168
  tail call void @llvm.memcpy.p0.p0.i64(ptr noundef nonnull align 8 dereferenceable(32) %0, ptr noundef nonnull align 8 dereferenceable(32) %3, i64 32, i1 false), !tbaa.struct !12
  ret void
}

; Function Attrs: mustprogress nofree norecurse nosync nounwind ssp willreturn memory(readwrite, argmem: none, inaccessiblemem: none) uwtable
define internal void @__cxx_global_var_init() #6 section ".text.startup" comdat($_ZN3fmt3v1012format_facetISt6localeE2idE) {
  %1 = load i8, ptr @_ZGVN3fmt3v1012format_facetISt6localeE2idE, align 8
  %2 = icmp eq i8 %1, 0
  br i1 %2, label %3, label %4

3:                                                ; preds = %0
  store i8 1, ptr @_ZGVN3fmt3v1012format_facetISt6localeE2idE, align 8
  br label %4

4:                                                ; preds = %3, %0
  ret void
}


!llvm.module.flags = !{!0, !1, !2, !3}

!0 = !{i32 1, !"wchar_size", i32 4}
!1 = !{i32 7, !"openmp", i32 51}
!2 = !{i32 8, !"PIC Level", i32 2}
!3 = !{i32 7, !"uwtable", i32 2}
!4 = !{!5, !6, i64 0}
!5 = !{!"_ZTSN6open3d4core15SmallVectorBaseIjEE", !6, i64 0, !9, i64 8, !9, i64 12}
!6 = !{!"any pointer", !7, i64 0}
!7 = !{!"omnipotent char", !8, i64 0}
!8 = !{!"Simple C++ TBAA"}
!9 = !{!"int", !7, i64 0}
!10 = !{!11, !11, i64 0}
!11 = !{!"long", !7, i64 0}
!12 = !{i64 0, i64 4, !13, i64 8, i64 8, !10, i64 16, i64 16, !15}
!13 = !{!14, !14, i64 0}
!14 = !{!"_ZTSN6open3d4core5Dtype9DtypeCodeE", !7, i64 0}
!15 = !{!7, !7, i64 0}
